target datalayout = "e-m:e-p270:32:32-p271:32:32-p272:64:64-i64:64-i128:128-f80:128-n8:16:32:64-S128"
target triple = "x86_64-pc-linux-gnu"

%struct.evp_method_data_st = type { ptr, i32, i32, ptr, ptr, ptr, i8, ptr, ptr, ptr }

; Function Attrs: nounwind uwtable
define internal ptr @get_evp_method_store(ptr noundef %0) #0 {
  %2 = alloca ptr, align 8
  store ptr %0, ptr %2, align 8, !tbaa !3
  %3 = load ptr, ptr %2, align 8, !tbaa !3
  %4 = call ptr @ossl_lib_ctx_get_data(ptr noundef %3, i32 noundef 0)
  ret ptr %4
}

; Function Attrs: nounwind uwtable
define internal i32 @reserve_evp_method_store(ptr noundef %0, ptr noundef %1) #0 {
  %3 = alloca i32, align 4
  %4 = alloca ptr, align 8
  %5 = alloca ptr, align 8
  %6 = alloca ptr, align 8
  %7 = alloca i32, align 4
  store ptr %0, ptr %4, align 8, !tbaa !12
  store ptr %1, ptr %5, align 8, !tbaa !12
  call void @llvm.lifetime.start.p0(i64 8, ptr %6) #6
  %8 = load ptr, ptr %5, align 8, !tbaa !12
  store ptr %8, ptr %6, align 8, !tbaa !17
  %9 = load ptr, ptr %4, align 8, !tbaa !12
  %10 = icmp eq ptr %9, null
  br i1 %10, label %11, label %18

11:                                               ; preds = %2
  %12 = load ptr, ptr %6, align 8, !tbaa !17
  %13 = getelementptr inbounds nuw %struct.evp_method_data_st, ptr %12, i32 0, i32 0
  %14 = load ptr, ptr %13, align 8, !tbaa !13
  %15 = call ptr @get_evp_method_store(ptr noundef %14)
  store ptr %15, ptr %4, align 8, !tbaa !12
  %16 = icmp eq ptr %15, null
  br i1 %16, label %17, label %18

17:                                               ; preds = %11
  store i32 0, ptr %3, align 4
  store i32 1, ptr %7, align 4
  br label %21

18:                                               ; preds = %11, %2
  %19 = load ptr, ptr %4, align 8, !tbaa !12
  %20 = call i32 @ossl_method_lock_store(ptr noundef %19)
  store i32 %20, ptr %3, align 4
  store i32 1, ptr %7, align 4
  br label %21

21:                                               ; preds = %18, %17
  call void @llvm.lifetime.end.p0(i64 8, ptr %6) #6
  %22 = load i32, ptr %3, align 4
  ret i32 %22
}